target datalayout = "e-m:e-p270:32:32-p271:32:32-p272:64:64-i64:64-i128:128-f80:128-n8:16:32:64-S128"
target triple = "x86_64-pc-linux-gnu"

%struct.Curl_cwriter = type { ptr, ptr, ptr, i32 }
%struct.zstd_writer = type { %struct.Curl_cwriter, ptr, [16384 x i8] }

; Function Attrs: nounwind uwtable
define internal void @zstd_do_close(ptr noundef %0, ptr noundef %1) #0 {
  %3 = alloca ptr, align 8
  %4 = alloca ptr, align 8
  %5 = alloca ptr, align 8
  store ptr %0, ptr %3, align 8, !tbaa !20
  store ptr %1, ptr %4, align 8, !tbaa !98
  call void @llvm.lifetime.start.p0(i64 8, ptr %5) #5
  %6 = load ptr, ptr %4, align 8, !tbaa !98
  store ptr %6, ptr %5, align 8, !tbaa !129
  %7 = load ptr, ptr %5, align 8, !tbaa !129
  %8 = getelementptr inbounds nuw %struct.zstd_writer, ptr %7, i32 0, i32 1
  %9 = load ptr, ptr %8, align 8, !tbaa !131
  %10 = icmp ne ptr %9, null
  br i1 %10, label %11, label %18

11:                                               ; preds = %2
  %12 = load ptr, ptr %5, align 8, !tbaa !129
  %13 = getelementptr inbounds nuw %struct.zstd_writer, ptr %12, i32 0, i32 1
  %14 = load ptr, ptr %13, align 8, !tbaa !131
  %15 = call i64 @ZSTD_freeDStream(ptr noundef %14)
  %16 = load ptr, ptr %5, align 8, !tbaa !129
  %17 = getelementptr inbounds nuw %struct.zstd_writer, ptr %16, i32 0, i32 1
  store ptr null, ptr %17, align 8, !tbaa !131
  br label %18

18:                                               ; preds = %11, %2
  call void @llvm.lifetime.end.p0(i64 8, ptr %5) #5
  ret void
}