; Function Attrs: nounwind uwtable
define internal void @zstd_do_close(ptr readnone captures(none) %0, ptr noundef captures(none) %1) #0 {
  %3 = getelementptr inbounds nuw i8, ptr %1, i64 32
  %4 = load ptr, ptr %3, align 8, !tbaa !112
  %.not = icmp eq ptr %4, null
  br i1 %.not, label %7, label %5

5:                                                ; preds = %2
  %6 = tail call i64 @ZSTD_freeDStream(ptr noundef nonnull %4) #8
  store ptr null, ptr %3, align 8, !tbaa !112
  br label %7

7:                                                ; preds = %5, %2
  ret void
}